target datalayout = "e-m:e-p270:32:32-p271:32:32-p272:64:64-i64:64-i128:128-f80:128-n8:16:32:64-S128"
target triple = "x86_64-pc-linux-gnu"

%"struct.__cxxabiv1::__base_class_type_info" = type { ptr, i64 }

; Function Attrs: inlinehint mustprogress nounwind uwtable
define internal noundef i64 @_ZL21update_offset_to_basePKcl(ptr noundef %0, i64 noundef %1) #5 {
  %3 = alloca ptr, align 8
  %4 = alloca i64, align 8
  store ptr %0, ptr %3, align 8, !tbaa !38
  store i64 %1, ptr %4, align 8, !tbaa !63
  %5 = load ptr, ptr %3, align 8, !tbaa !38
  %6 = load i64, ptr %4, align 8, !tbaa !63
  %7 = getelementptr inbounds i8, ptr %5, i64 %6
  %8 = load i64, ptr %7, align 8, !tbaa !63
  ret i64 %8
}

; Function Attrs: inlinehint mustprogress nounwind uwtable
define internal noundef ptr @_ZL12strip_vtableIKcEPT_S2_(ptr noundef %0) #5 {
  %2 = alloca ptr, align 8
  store ptr %0, ptr %2, align 8, !tbaa !38
  %3 = load ptr, ptr %2, align 8, !tbaa !38
  ret ptr %3
}

; Function Attrs: mustprogress uwtable
define hidden void @_ZNK10__cxxabiv122__base_class_type_info16search_above_dstEPNS_19__dynamic_cast_infoEPKvS4_ib(ptr noundef nonnull align 8 dereferenceable(16) %0, ptr noundef %1, ptr noundef %2, ptr noundef %3, i32 noundef %4, i1 noundef zeroext %5) #4 align 2 {
  %7 = alloca ptr, align 8
  %8 = alloca ptr, align 8
  %9 = alloca ptr, align 8
  %10 = alloca ptr, align 8
  %11 = alloca i32, align 4
  %12 = alloca i8, align 1
  %13 = alloca i64, align 8
  %14 = alloca ptr, align 8
  store ptr %0, ptr %7, align 8, !tbaa !76
  store ptr %1, ptr %8, align 8, !tbaa !68
  store ptr %2, ptr %9, align 8, !tbaa !37
  store ptr %3, ptr %10, align 8, !tbaa !37
  store i32 %4, ptr %11, align 4, !tbaa !70
  %15 = zext i1 %5 to i8
  store i8 %15, ptr %12, align 1, !tbaa !33
  %16 = load ptr, ptr %7, align 8
  call void @llvm.lifetime.start.p0(i64 8, ptr %13) #11
  %17 = getelementptr inbounds nuw %"struct.__cxxabiv1::__base_class_type_info", ptr %16, i32 0, i32 1
  %18 = load i64, ptr %17, align 8, !tbaa !78
  %19 = ashr i64 %18, 8
  store i64 %19, ptr %13, align 8, !tbaa !63
  %20 = getelementptr inbounds nuw %"struct.__cxxabiv1::__base_class_type_info", ptr %16, i32 0, i32 1
  %21 = load i64, ptr %20, align 8, !tbaa !78
  %22 = and i64 %21, 1
  %23 = icmp ne i64 %22, 0
  br i1 %23, label %24, label %31

24:                                               ; preds = %6
  call void @llvm.lifetime.start.p0(i64 8, ptr %14) #11
  %25 = load ptr, ptr %10, align 8, !tbaa !37
  %26 = load ptr, ptr %25, align 8, !tbaa !38
  %27 = call noundef ptr @_ZL12strip_vtableIKcEPT_S2_(ptr noundef %26)
  store ptr %27, ptr %14, align 8, !tbaa !38
  %28 = load ptr, ptr %14, align 8, !tbaa !38
  %29 = load i64, ptr %13, align 8, !tbaa !63
  %30 = call noundef i64 @_ZL21update_offset_to_basePKcl(ptr noundef %28, i64 noundef %29)
  store i64 %30, ptr %13, align 8, !tbaa !63
  call void @llvm.lifetime.end.p0(i64 8, ptr %14) #11
  br label %31

31:                                               ; preds = %24, %6
  %32 = getelementptr inbounds nuw %"struct.__cxxabiv1::__base_class_type_info", ptr %16, i32 0, i32 0
  %33 = load ptr, ptr %32, align 8, !tbaa !80
  %34 = load ptr, ptr %8, align 8, !tbaa !68
  %35 = load ptr, ptr %9, align 8, !tbaa !37
  %36 = load ptr, ptr %10, align 8, !tbaa !37
  %37 = load i64, ptr %13, align 8, !tbaa !63
  %38 = getelementptr inbounds i8, ptr %36, i64 %37
  %39 = getelementptr inbounds nuw %"struct.__cxxabiv1::__base_class_type_info", ptr %16, i32 0, i32 1
  %40 = load i64, ptr %39, align 8, !tbaa !78
  %41 = and i64 %40, 2
  %42 = icmp ne i64 %41, 0
  br i1 %42, label %43, label %45

43:                                               ; preds = %31
  %44 = load i32, ptr %11, align 4, !tbaa !70
  br label %46

45:                                               ; preds = %31
  br label %46

46:                                               ; preds = %45, %43
  %47 = phi i32 [ %44, %43 ], [ 2, %45 ]
  %48 = load i8, ptr %12, align 1, !tbaa !33, !range !35, !noundef !36
  %49 = trunc i8 %48 to i1
  %50 = load ptr, ptr %33, align 8, !tbaa !61
  %51 = getelementptr inbounds ptr, ptr %50, i64 5
  %52 = load ptr, ptr %51, align 8
  call void %52(ptr noundef nonnull align 8 dereferenceable(16) %33, ptr noundef %34, ptr noundef %35, ptr noundef %38, i32 noundef %47, i1 noundef zeroext %49)
  call void @llvm.lifetime.end.p0(i64 8, ptr %13) #11
  ret void
}