; Function Attrs: mustprogress uwtable
define hidden void @_ZNK10__cxxabiv122__base_class_type_info16search_above_dstEPNS_19__dynamic_cast_infoEPKvS4_ib(ptr noundef nonnull readonly align 8 captures(none) dereferenceable(16) %0, ptr noundef %1, ptr noundef %2, ptr noundef %3, i32 noundef %4, i1 noundef zeroext %5) local_unnamed_addr #7 align 2 {
  %7 = getelementptr inbounds nuw i8, ptr %0, i64 8
  %8 = load i64, ptr %7, align 8, !tbaa !39
  %9 = ashr i64 %8, 8
  %10 = and i64 %8, 1
  %.not = icmp eq i64 %10, 0
  br i1 %.not, label %15, label %11

11:                                               ; preds = %6
  %12 = load ptr, ptr %3, align 8, !tbaa !43
  %13 = getelementptr inbounds i8, ptr %12, i64 %9
  %14 = load i64, ptr %13, align 8, !tbaa !44
  br label %15

15:                                               ; preds = %11, %6
  %.0 = phi i64 [ %14, %11 ], [ %9, %6 ]
  %16 = load ptr, ptr %0, align 8, !tbaa !45
  %17 = getelementptr inbounds i8, ptr %3, i64 %.0
  %18 = and i64 %8, 2
  %.not9 = icmp eq i64 %18, 0
  %19 = select i1 %.not9, i32 2, i32 %4
  %20 = load ptr, ptr %16, align 8, !tbaa !23
  %21 = getelementptr inbounds nuw i8, ptr %20, i64 40
  %22 = load ptr, ptr %21, align 8
  tail call void %22(ptr noundef nonnull align 8 dereferenceable(16) %16, ptr noundef %1, ptr noundef %2, ptr noundef %17, i32 noundef %19, i1 noundef zeroext %5)
  ret void
}